target datalayout = "e-m:e-p270:32:32-p271:32:32-p272:64:64-i64:64-i128:128-f80:128-n8:16:32:64-S128"
target triple = "x86_64-pc-linux-gnu"

%struct.RoseEngine = type { i8, i8, i8, i8, i8, i8, i8, i8, i8, i32, i32, i32, i32, i32, i32, i32, i32, i32, i32, i32, i32, i32, i32, i32, i32, i32, i32, i32, i32, i32, i32, i32, i32, i32, i32, i32, i32, i32, i32, i32, i32, i32, i32, i32, i32, i32, i32, i32, i32, i32, i32, i32, i32, i32, i32, i32, i32, i32, i32, i32, i32, i32, i32, i32, i32, i32, i64, i64, i32, i32, i32, i32, i32, i32, i32, %struct.RoseStateOffsets, %struct.RoseBoundaryReports, i32, i32, i32, i32, i32, i32, i32, i32, i32, i32, i32, i32, %struct.scatter_full_plan }
%struct.RoseStateOffsets = type { i32, i32, i32, i32, i32, i32, i32, i32, i32, i32, i32, i32, i32, i32, i32, i32, i32, i32, i32, i32, i32, i32, i32 }
%struct.RoseBoundaryReports = type { i32, i32, i32 }
%struct.scatter_full_plan = type { i32, i32, i32, i32, i32, i32, i32, i32 }
%struct.hs_scratch = type { i32, i8, i32, i32, i32, i32, i32, %struct.RoseContext, ptr, ptr, ptr, ptr, ptr, ptr, ptr, i64, %struct.catchup_pq, %struct.core_info, %struct.match_deduper, i32, i32, ptr, ptr, ptr, ptr, ptr, i64, i32, i32, i32, i32, i32, ptr, ptr, i8 }
%struct.RoseContext = type { i8, i64, i64, i64, i64, i64, i64, i64, i64, i64, i32, i32, ptr, i64, ptr, i64 }
%struct.catchup_pq = type { ptr, i32 }
%struct.core_info = type { ptr, ptr, ptr, ptr, ptr, ptr, ptr, ptr, i64, ptr, i64, i64, i8 }
%struct.match_deduper = type { [2 x ptr], [2 x ptr], [2 x ptr], i32, i32, i64, i8 }
%struct.mq = type { ptr, i32, i32, ptr, ptr, i64, ptr, i64, ptr, i64, ptr, i8, ptr, ptr, [10 x %struct.mq_item] }
%struct.mq_item = type { i32, i64, i64 }
%struct.hs_stream = type { ptr, i64 }
%struct.NfaInfo = type { i32, i32, i32, i32, i8, i8, i8 }

; Function Attrs: alwaysinline nounwind uwtable
define internal ptr @getNfaByInfo(ptr noundef %0, ptr noundef %1) #3 {
  %3 = alloca ptr, align 8
  %4 = alloca ptr, align 8
  store ptr %0, ptr %3, align 8
  store ptr %1, ptr %4, align 8
  %5 = load ptr, ptr %3, align 8
  %6 = load ptr, ptr %4, align 8
  %7 = getelementptr inbounds nuw %struct.NfaInfo, ptr %6, i32 0, i32 0
  %8 = load i32, ptr %7, align 4
  %9 = zext i32 %8 to i64
  %10 = getelementptr inbounds nuw i8, ptr %5, i64 %9
  ret ptr %10
}

; Function Attrs: alwaysinline nounwind uwtable
define internal ptr @getNfaInfoByQueue(ptr noundef %0, i32 noundef %1) #3 {
  %3 = alloca ptr, align 8
  %4 = alloca i32, align 4
  %5 = alloca ptr, align 8
  store ptr %0, ptr %3, align 8
  store i32 %1, ptr %4, align 4
  call void @llvm.lifetime.start.p0(i64 8, ptr %5) #13
  %6 = load ptr, ptr %3, align 8
  %7 = load ptr, ptr %3, align 8
  %8 = getelementptr inbounds nuw %struct.RoseEngine, ptr %7, i32 0, i32 65
  %9 = load i32, ptr %8, align 4
  %10 = zext i32 %9 to i64
  %11 = getelementptr inbounds nuw i8, ptr %6, i64 %10
  store ptr %11, ptr %5, align 8
  %12 = load ptr, ptr %5, align 8
  %13 = load i32, ptr %4, align 4
  %14 = zext i32 %13 to i64
  %15 = getelementptr inbounds nuw %struct.NfaInfo, ptr %12, i64 %14
  call void @llvm.lifetime.end.p0(i64 8, ptr %5) #13
  ret ptr %15
}

; Function Attrs: alwaysinline nounwind uwtable
define internal signext i8 @told_to_stop_matching(ptr noundef %0) #3 {
  %2 = alloca ptr, align 8
  store ptr %0, ptr %2, align 8
  %3 = load ptr, ptr %2, align 8
  %4 = getelementptr inbounds nuw %struct.hs_scratch, ptr %3, i32 0, i32 17
  %5 = getelementptr inbounds nuw %struct.core_info, ptr %4, i32 0, i32 12
  %6 = load i8, ptr %5, align 8
  %7 = zext i8 %6 to i32
  %8 = and i32 %7, 1
  %9 = trunc i32 %8 to i8
  ret i8 %9
}

; Function Attrs: alwaysinline nounwind uwtable
define internal zeroext i8 @queue_prev_byte(ptr noundef %0, i64 noundef %1) #3 {
  %3 = alloca i8, align 1
  %4 = alloca ptr, align 8
  %5 = alloca i64, align 8
  store ptr %0, ptr %4, align 8
  store i64 %1, ptr %5, align 8
  %6 = load i64, ptr %5, align 8
  %7 = icmp sle i64 %6, 0
  br i1 %7, label %8, label %28

8:                                                ; preds = %2
  %9 = load i64, ptr %5, align 8
  %10 = sub nsw i64 1, %9
  %11 = load ptr, ptr %4, align 8
  %12 = getelementptr inbounds nuw %struct.mq, ptr %11, i32 0, i32 9
  %13 = load i64, ptr %12, align 8
  %14 = icmp sgt i64 %10, %13
  br i1 %14, label %15, label %16

15:                                               ; preds = %8
  store i8 0, ptr %3, align 1
  br label %36

16:                                               ; preds = %8
  %17 = load ptr, ptr %4, align 8
  %18 = getelementptr inbounds nuw %struct.mq, ptr %17, i32 0, i32 8
  %19 = load ptr, ptr %18, align 8
  %20 = load ptr, ptr %4, align 8
  %21 = getelementptr inbounds nuw %struct.mq, ptr %20, i32 0, i32 9
  %22 = load i64, ptr %21, align 8
  %23 = sub i64 %22, 1
  %24 = load i64, ptr %5, align 8
  %25 = add i64 %23, %24
  %26 = getelementptr inbounds nuw i8, ptr %19, i64 %25
  %27 = load i8, ptr %26, align 1
  store i8 %27, ptr %3, align 1
  br label %36

28:                                               ; preds = %2
  %29 = load ptr, ptr %4, align 8
  %30 = getelementptr inbounds nuw %struct.mq, ptr %29, i32 0, i32 6
  %31 = load ptr, ptr %30, align 8
  %32 = load i64, ptr %5, align 8
  %33 = sub nsw i64 %32, 1
  %34 = getelementptr inbounds i8, ptr %31, i64 %33
  %35 = load i8, ptr %34, align 1
  store i8 %35, ptr %3, align 1
  br label %36

36:                                               ; preds = %28, %16, %15
  %37 = load i8, ptr %3, align 1
  ret i8 %37
}

; Function Attrs: alwaysinline nounwind uwtable
define internal void @pushQueueAt(ptr noalias noundef %0, i32 noundef %1, i32 noundef %2, i64 noundef %3) #3 {
  %5 = alloca ptr, align 8
  %6 = alloca i32, align 4
  %7 = alloca i32, align 4
  %8 = alloca i64, align 8
  %9 = alloca ptr, align 8
  store ptr %0, ptr %5, align 8
  store i32 %1, ptr %6, align 4
  store i32 %2, ptr %7, align 4
  store i64 %3, ptr %8, align 8
  br label %10

10:                                               ; preds = %4
  br label %11

11:                                               ; preds = %10
  call void @llvm.lifetime.start.p0(i64 8, ptr %9) #13
  %12 = load ptr, ptr %5, align 8
  %13 = getelementptr inbounds nuw %struct.mq, ptr %12, i32 0, i32 14
  %14 = load i32, ptr %6, align 4
  %15 = zext i32 %14 to i64
  %16 = getelementptr inbounds nuw [10 x %struct.mq_item], ptr %13, i64 0, i64 %15
  store ptr %16, ptr %9, align 8
  %17 = load i32, ptr %7, align 4
  %18 = load ptr, ptr %9, align 8
  %19 = getelementptr inbounds nuw %struct.mq_item, ptr %18, i32 0, i32 0
  store i32 %17, ptr %19, align 8
  %20 = load i64, ptr %8, align 8
  %21 = load ptr, ptr %9, align 8
  %22 = getelementptr inbounds nuw %struct.mq_item, ptr %21, i32 0, i32 1
  store i64 %20, ptr %22, align 8
  %23 = load ptr, ptr %9, align 8
  %24 = getelementptr inbounds nuw %struct.mq_item, ptr %23, i32 0, i32 2
  store i64 0, ptr %24, align 8
  %25 = load i32, ptr %6, align 4
  %26 = add i32 %25, 1
  %27 = load ptr, ptr %5, align 8
  %28 = getelementptr inbounds nuw %struct.mq, ptr %27, i32 0, i32 2
  store i32 %26, ptr %28, align 4
  call void @llvm.lifetime.end.p0(i64 8, ptr %9) #13
  ret void
}

; Function Attrs: alwaysinline nounwind uwtable
define internal void @initOutfixQueue(ptr noundef %0, i32 noundef %1, ptr noundef %2, ptr noundef %3) #3 {
  %5 = alloca ptr, align 8
  %6 = alloca i32, align 4
  %7 = alloca ptr, align 8
  %8 = alloca ptr, align 8
  %9 = alloca ptr, align 8
  store ptr %0, ptr %5, align 8
  store i32 %1, ptr %6, align 4
  store ptr %2, ptr %7, align 8
  store ptr %3, ptr %8, align 8
  call void @llvm.lifetime.start.p0(i64 8, ptr %9) #13
  %10 = load ptr, ptr %7, align 8
  %11 = load i32, ptr %6, align 4
  %12 = call ptr @getNfaInfoByQueue(ptr noundef %10, i32 noundef %11)
  store ptr %12, ptr %9, align 8
  %13 = load ptr, ptr %7, align 8
  %14 = load ptr, ptr %9, align 8
  %15 = call ptr @getNfaByInfo(ptr noundef %13, ptr noundef %14)
  %16 = load ptr, ptr %5, align 8
  %17 = getelementptr inbounds nuw %struct.mq, ptr %16, i32 0, i32 0
  store ptr %15, ptr %17, align 8
  %18 = load ptr, ptr %5, align 8
  %19 = getelementptr inbounds nuw %struct.mq, ptr %18, i32 0, i32 2
  store i32 0, ptr %19, align 4
  %20 = load ptr, ptr %5, align 8
  %21 = getelementptr inbounds nuw %struct.mq, ptr %20, i32 0, i32 1
  store i32 0, ptr %21, align 8
  %22 = load ptr, ptr %8, align 8
  %23 = getelementptr inbounds nuw %struct.hs_scratch, ptr %22, i32 0, i32 10
  %24 = load ptr, ptr %23, align 8
  %25 = load ptr, ptr %9, align 8
  %26 = getelementptr inbounds nuw %struct.NfaInfo, ptr %25, i32 0, i32 2
  %27 = load i32, ptr %26, align 4
  %28 = zext i32 %27 to i64
  %29 = getelementptr inbounds nuw i8, ptr %24, i64 %28
  %30 = load ptr, ptr %5, align 8
  %31 = getelementptr inbounds nuw %struct.mq, ptr %30, i32 0, i32 3
  store ptr %29, ptr %31, align 8
  %32 = load ptr, ptr %8, align 8
  %33 = getelementptr inbounds nuw %struct.hs_scratch, ptr %32, i32 0, i32 17
  %34 = getelementptr inbounds nuw %struct.core_info, ptr %33, i32 0, i32 3
  %35 = load ptr, ptr %34, align 8
  %36 = load ptr, ptr %9, align 8
  %37 = getelementptr inbounds nuw %struct.NfaInfo, ptr %36, i32 0, i32 1
  %38 = load i32, ptr %37, align 4
  %39 = zext i32 %38 to i64
  %40 = getelementptr inbounds nuw i8, ptr %35, i64 %39
  %41 = load ptr, ptr %5, align 8
  %42 = getelementptr inbounds nuw %struct.mq, ptr %41, i32 0, i32 4
  store ptr %40, ptr %42, align 8
  %43 = load ptr, ptr %8, align 8
  %44 = getelementptr inbounds nuw %struct.hs_scratch, ptr %43, i32 0, i32 17
  %45 = getelementptr inbounds nuw %struct.core_info, ptr %44, i32 0, i32 11
  %46 = load i64, ptr %45, align 8
  %47 = load ptr, ptr %5, align 8
  %48 = getelementptr inbounds nuw %struct.mq, ptr %47, i32 0, i32 5
  store i64 %46, ptr %48, align 8
  %49 = load ptr, ptr %8, align 8
  %50 = getelementptr inbounds nuw %struct.hs_scratch, ptr %49, i32 0, i32 17
  %51 = getelementptr inbounds nuw %struct.core_info, ptr %50, i32 0, i32 7
  %52 = load ptr, ptr %51, align 8
  %53 = load ptr, ptr %5, align 8
  %54 = getelementptr inbounds nuw %struct.mq, ptr %53, i32 0, i32 6
  store ptr %52, ptr %54, align 8
  %55 = load ptr, ptr %8, align 8
  %56 = getelementptr inbounds nuw %struct.hs_scratch, ptr %55, i32 0, i32 17
  %57 = getelementptr inbounds nuw %struct.core_info, ptr %56, i32 0, i32 8
  %58 = load i64, ptr %57, align 8
  %59 = load ptr, ptr %5, align 8
  %60 = getelementptr inbounds nuw %struct.mq, ptr %59, i32 0, i32 7
  store i64 %58, ptr %60, align 8
  %61 = load ptr, ptr %8, align 8
  %62 = getelementptr inbounds nuw %struct.hs_scratch, ptr %61, i32 0, i32 17
  %63 = getelementptr inbounds nuw %struct.core_info, ptr %62, i32 0, i32 9
  %64 = load ptr, ptr %63, align 8
  %65 = load ptr, ptr %5, align 8
  %66 = getelementptr inbounds nuw %struct.mq, ptr %65, i32 0, i32 8
  store ptr %64, ptr %66, align 8
  %67 = load ptr, ptr %8, align 8
  %68 = getelementptr inbounds nuw %struct.hs_scratch, ptr %67, i32 0, i32 17
  %69 = getelementptr inbounds nuw %struct.core_info, ptr %68, i32 0, i32 10
  %70 = load i64, ptr %69, align 8
  %71 = load ptr, ptr %5, align 8
  %72 = getelementptr inbounds nuw %struct.mq, ptr %71, i32 0, i32 9
  store i64 %70, ptr %72, align 8
  %73 = load ptr, ptr %5, align 8
  %74 = getelementptr inbounds nuw %struct.mq, ptr %73, i32 0, i32 12
  store ptr @roseReportAdaptor, ptr %74, align 8
  %75 = load ptr, ptr %8, align 8
  %76 = load ptr, ptr %5, align 8
  %77 = getelementptr inbounds nuw %struct.mq, ptr %76, i32 0, i32 13
  store ptr %75, ptr %77, align 8
  %78 = load ptr, ptr %5, align 8
  %79 = getelementptr inbounds nuw %struct.mq, ptr %78, i32 0, i32 11
  store i8 0, ptr %79, align 8
  br label %80

80:                                               ; preds = %4
  br label %81

81:                                               ; preds = %80
  br label %82

82:                                               ; preds = %81
  call void @llvm.lifetime.end.p0(i64 8, ptr %9) #13
  ret void
}

; Function Attrs: alwaysinline nounwind uwtable
define internal ptr @getNfaByQueue(ptr noundef %0, i32 noundef %1) #3 {
  %3 = alloca ptr, align 8
  %4 = alloca i32, align 4
  %5 = alloca ptr, align 8
  store ptr %0, ptr %3, align 8
  store i32 %1, ptr %4, align 4
  call void @llvm.lifetime.start.p0(i64 8, ptr %5) #13
  %6 = load ptr, ptr %3, align 8
  %7 = load i32, ptr %4, align 4
  %8 = call ptr @getNfaInfoByQueue(ptr noundef %6, i32 noundef %7)
  store ptr %8, ptr %5, align 8
  %9 = load ptr, ptr %3, align 8
  %10 = load ptr, ptr %5, align 8
  %11 = call ptr @getNfaByInfo(ptr noundef %9, ptr noundef %10)
  call void @llvm.lifetime.end.p0(i64 8, ptr %5) #13
  ret ptr %11
}

; Function Attrs: noinline nounwind uwtable
define internal void @soleOutfixStreamExec(ptr noundef %0, ptr noundef %1) #5 {
  %3 = alloca ptr, align 8
  %4 = alloca ptr, align 8
  %5 = alloca ptr, align 8
  %6 = alloca ptr, align 8
  %7 = alloca ptr, align 8
  store ptr %0, ptr %3, align 8
  store ptr %1, ptr %4, align 8
  call void @llvm.lifetime.start.p0(i64 8, ptr %5) #13
  %8 = load ptr, ptr %3, align 8
  %9 = getelementptr inbounds nuw %struct.hs_stream, ptr %8, i32 0, i32 0
  %10 = load ptr, ptr %9, align 8
  store ptr %10, ptr %5, align 8
  call void @llvm.lifetime.start.p0(i64 8, ptr %6) #13
  %11 = load ptr, ptr %5, align 8
  %12 = call ptr @getNfaByQueue(ptr noundef %11, i32 noundef 0)
  store ptr %12, ptr %6, align 8
  call void @llvm.lifetime.start.p0(i64 8, ptr %7) #13
  %13 = load ptr, ptr %4, align 8
  %14 = getelementptr inbounds nuw %struct.hs_scratch, ptr %13, i32 0, i32 11
  %15 = load ptr, ptr %14, align 16
  store ptr %15, ptr %7, align 8
  %16 = load ptr, ptr %7, align 8
  %17 = load ptr, ptr %5, align 8
  %18 = load ptr, ptr %4, align 8
  call void @initOutfixQueue(ptr noundef %16, i32 noundef 0, ptr noundef %17, ptr noundef %18)
  %19 = load ptr, ptr %4, align 8
  %20 = getelementptr inbounds nuw %struct.hs_scratch, ptr %19, i32 0, i32 17
  %21 = getelementptr inbounds nuw %struct.core_info, ptr %20, i32 0, i32 11
  %22 = load i64, ptr %21, align 8
  %23 = icmp ne i64 %22, 0
  br i1 %23, label %35, label %24

24:                                               ; preds = %2
  %25 = load ptr, ptr %6, align 8
  %26 = load ptr, ptr %7, align 8
  %27 = call signext i8 @nfaQueueInitState(ptr noundef %25, ptr noundef %26)
  %28 = load ptr, ptr %7, align 8
  call void @pushQueueAt(ptr noundef %28, i32 noundef 0, i32 noundef 0, i64 noundef 0)
  %29 = load ptr, ptr %7, align 8
  call void @pushQueueAt(ptr noundef %29, i32 noundef 1, i32 noundef 2, i64 noundef 0)
  %30 = load ptr, ptr %7, align 8
  %31 = load ptr, ptr %4, align 8
  %32 = getelementptr inbounds nuw %struct.hs_scratch, ptr %31, i32 0, i32 17
  %33 = getelementptr inbounds nuw %struct.core_info, ptr %32, i32 0, i32 8
  %34 = load i64, ptr %33, align 8
  call void @pushQueueAt(ptr noundef %30, i32 noundef 2, i32 noundef 1, i64 noundef %34)
  br label %55

35:                                               ; preds = %2
  %36 = load ptr, ptr %6, align 8
  %37 = load ptr, ptr %7, align 8
  %38 = getelementptr inbounds nuw %struct.mq, ptr %37, i32 0, i32 3
  %39 = load ptr, ptr %38, align 8
  %40 = load ptr, ptr %7, align 8
  %41 = getelementptr inbounds nuw %struct.mq, ptr %40, i32 0, i32 4
  %42 = load ptr, ptr %41, align 8
  %43 = load ptr, ptr %7, align 8
  %44 = getelementptr inbounds nuw %struct.mq, ptr %43, i32 0, i32 5
  %45 = load i64, ptr %44, align 8
  %46 = load ptr, ptr %7, align 8
  %47 = call zeroext i8 @queue_prev_byte(ptr noundef %46, i64 noundef 0)
  %48 = call signext i8 @nfaExpandState(ptr noundef %36, ptr noundef %39, ptr noundef %42, i64 noundef %45, i8 noundef zeroext %47)
  %49 = load ptr, ptr %7, align 8
  call void @pushQueueAt(ptr noundef %49, i32 noundef 0, i32 noundef 0, i64 noundef 0)
  %50 = load ptr, ptr %7, align 8
  %51 = load ptr, ptr %4, align 8
  %52 = getelementptr inbounds nuw %struct.hs_scratch, ptr %51, i32 0, i32 17
  %53 = getelementptr inbounds nuw %struct.core_info, ptr %52, i32 0, i32 8
  %54 = load i64, ptr %53, align 8
  call void @pushQueueAt(ptr noundef %50, i32 noundef 1, i32 noundef 1, i64 noundef %54)
  br label %55

55:                                               ; preds = %35, %24
  %56 = load ptr, ptr %7, align 8
  %57 = getelementptr inbounds nuw %struct.mq, ptr %56, i32 0, i32 0
  %58 = load ptr, ptr %57, align 8
  %59 = load ptr, ptr %7, align 8
  %60 = load ptr, ptr %4, align 8
  %61 = getelementptr inbounds nuw %struct.hs_scratch, ptr %60, i32 0, i32 17
  %62 = getelementptr inbounds nuw %struct.core_info, ptr %61, i32 0, i32 8
  %63 = load i64, ptr %62, align 8
  %64 = call signext i8 @nfaQueueExec(ptr noundef %58, ptr noundef %59, i64 noundef %63)
  %65 = icmp ne i8 %64, 0
  br i1 %65, label %66, label %74

66:                                               ; preds = %55
  %67 = load ptr, ptr %6, align 8
  %68 = load ptr, ptr %7, align 8
  %69 = load ptr, ptr %4, align 8
  %70 = getelementptr inbounds nuw %struct.hs_scratch, ptr %69, i32 0, i32 17
  %71 = getelementptr inbounds nuw %struct.core_info, ptr %70, i32 0, i32 8
  %72 = load i64, ptr %71, align 8
  %73 = call signext i8 @nfaQueueCompressState(ptr noundef %67, ptr noundef %68, i64 noundef %72)
  br label %87

74:                                               ; preds = %55
  %75 = load ptr, ptr %4, align 8
  %76 = call signext i8 @told_to_stop_matching(ptr noundef %75)
  %77 = icmp ne i8 %76, 0
  br i1 %77, label %86, label %78

78:                                               ; preds = %74
  %79 = load ptr, ptr %4, align 8
  %80 = getelementptr inbounds nuw %struct.hs_scratch, ptr %79, i32 0, i32 17
  %81 = getelementptr inbounds nuw %struct.core_info, ptr %80, i32 0, i32 12
  %82 = load i8, ptr %81, align 8
  %83 = zext i8 %82 to i32
  %84 = or i32 %83, 2
  %85 = trunc i32 %84 to i8
  store i8 %85, ptr %81, align 8
  br label %86

86:                                               ; preds = %78, %74
  br label %87

87:                                               ; preds = %86, %66
  call void @llvm.lifetime.end.p0(i64 8, ptr %7) #13
  call void @llvm.lifetime.end.p0(i64 8, ptr %6) #13
  call void @llvm.lifetime.end.p0(i64 8, ptr %5) #13
  ret void
}