; Function Attrs: noinline nounwind uwtable
define internal fastcc void @soleOutfixStreamExec(ptr %.0.val, ptr noundef %0) unnamed_addr #11 {
  %2 = getelementptr inbounds nuw i8, ptr %.0.val, i64 236
  %3 = load i32, ptr %2, align 4
  %4 = zext i32 %3 to i64
  %5 = getelementptr inbounds nuw i8, ptr %.0.val, i64 %4
  %6 = load i32, ptr %5, align 4
  %7 = zext i32 %6 to i64
  %8 = getelementptr inbounds nuw i8, ptr %.0.val, i64 %7
  %9 = getelementptr inbounds nuw i8, ptr %0, i64 176
  %10 = load ptr, ptr %9, align 16
  store ptr %8, ptr %10, align 8
  %11 = getelementptr inbounds nuw i8, ptr %10, i64 12
  store i32 0, ptr %11, align 4
  %12 = getelementptr inbounds nuw i8, ptr %10, i64 8
  store i32 0, ptr %12, align 8
  %13 = getelementptr inbounds nuw i8, ptr %0, i64 168
  %14 = load ptr, ptr %13, align 8
  %15 = getelementptr inbounds nuw i8, ptr %5, i64 8
  %16 = load i32, ptr %15, align 4
  %17 = zext i32 %16 to i64
  %18 = getelementptr inbounds nuw i8, ptr %14, i64 %17
  %19 = getelementptr inbounds nuw i8, ptr %10, i64 16
  store ptr %18, ptr %19, align 8
  %20 = getelementptr inbounds nuw i8, ptr %0, i64 256
  %21 = load ptr, ptr %20, align 8
  %22 = getelementptr inbounds nuw i8, ptr %5, i64 4
  %23 = load i32, ptr %22, align 4
  %24 = zext i32 %23 to i64
  %25 = getelementptr inbounds nuw i8, ptr %21, i64 %24
  %26 = getelementptr inbounds nuw i8, ptr %10, i64 24
  store ptr %25, ptr %26, align 8
  %27 = getelementptr inbounds nuw i8, ptr %0, i64 320
  %28 = load i64, ptr %27, align 8
  %29 = getelementptr inbounds nuw i8, ptr %10, i64 32
  store i64 %28, ptr %29, align 8
  %30 = getelementptr inbounds nuw i8, ptr %0, i64 288
  %31 = load ptr, ptr %30, align 8
  %32 = getelementptr inbounds nuw i8, ptr %10, i64 40
  store ptr %31, ptr %32, align 8
  %33 = getelementptr inbounds nuw i8, ptr %0, i64 296
  %34 = load i64, ptr %33, align 8
  %35 = getelementptr inbounds nuw i8, ptr %10, i64 48
  store i64 %34, ptr %35, align 8
  %36 = getelementptr inbounds nuw i8, ptr %0, i64 304
  %37 = load ptr, ptr %36, align 8
  %38 = getelementptr inbounds nuw i8, ptr %10, i64 56
  store ptr %37, ptr %38, align 8
  %39 = getelementptr inbounds nuw i8, ptr %0, i64 312
  %40 = load i64, ptr %39, align 8
  %41 = getelementptr inbounds nuw i8, ptr %10, i64 64
  store i64 %40, ptr %41, align 8
  %42 = getelementptr inbounds nuw i8, ptr %10, i64 88
  store ptr @roseReportAdaptor, ptr %42, align 8
  %43 = getelementptr inbounds nuw i8, ptr %10, i64 96
  store ptr %0, ptr %43, align 8
  %44 = getelementptr inbounds nuw i8, ptr %10, i64 80
  store i8 0, ptr %44, align 8
  %45 = load i64, ptr %27, align 8
  %.not = icmp eq i64 %45, 0
  br i1 %.not, label %46, label %50

46:                                               ; preds = %1
  %47 = tail call signext i8 @nfaQueueInitState(ptr noundef nonnull %8, ptr noundef nonnull %10) #13
  %48 = getelementptr inbounds nuw i8, ptr %10, i64 104
  store i32 0, ptr %48, align 8, !alias.scope !19
  %49 = getelementptr inbounds nuw i8, ptr %10, i64 112
  tail call void @llvm.memset.p0.i64(ptr noundef nonnull align 8 dereferenceable(16) %49, i8 0, i64 16, i1 false)
  br label %57

50:                                               ; preds = %1
  %51 = icmp slt i64 %40, 1
  br i1 %51, label %queue_prev_byte.exit, label %52

52:                                               ; preds = %50
  %53 = getelementptr i8, ptr %37, i64 %40
  %54 = getelementptr i8, ptr %53, i64 -1
  %55 = load i8, ptr %54, align 1
  br label %queue_prev_byte.exit

queue_prev_byte.exit:                             ; preds = %50, %52
  %.0.i = phi i8 [ %55, %52 ], [ 0, %50 ]
  %56 = tail call signext i8 @nfaExpandState(ptr noundef nonnull %8, ptr noundef %18, ptr noundef %25, i64 noundef %28, i8 noundef zeroext %.0.i) #13
  br label %57

57:                                               ; preds = %queue_prev_byte.exit, %46
  %.sink11 = phi i64 [ 104, %queue_prev_byte.exit ], [ 128, %46 ]
  %.sink9 = phi i32 [ 0, %queue_prev_byte.exit ], [ 2, %46 ]
  %.sink8 = phi i64 [ 112, %queue_prev_byte.exit ], [ 136, %46 ]
  %.sink = phi i32 [ 1, %queue_prev_byte.exit ], [ 2, %46 ]
  %.sink5 = phi i64 [ 128, %queue_prev_byte.exit ], [ 152, %46 ]
  %.sink3 = phi i64 [ 136, %queue_prev_byte.exit ], [ 160, %46 ]
  %.sink1 = phi i64 [ 144, %queue_prev_byte.exit ], [ 168, %46 ]
  %storemerge = phi i32 [ 2, %queue_prev_byte.exit ], [ 3, %46 ]
  %58 = getelementptr inbounds nuw i8, ptr %10, i64 %.sink11
  store i32 %.sink9, ptr %58, align 8
  %59 = getelementptr inbounds nuw i8, ptr %10, i64 %.sink8
  tail call void @llvm.memset.p0.i64(ptr noundef nonnull align 8 dereferenceable(16) %59, i8 0, i64 16, i1 false)
  store i32 %.sink, ptr %11, align 4
  %60 = load i64, ptr %33, align 8
  %61 = getelementptr inbounds nuw i8, ptr %10, i64 %.sink5
  store i32 1, ptr %61, align 8
  %62 = getelementptr inbounds nuw i8, ptr %10, i64 %.sink3
  store i64 %60, ptr %62, align 8
  %63 = getelementptr inbounds nuw i8, ptr %10, i64 %.sink1
  store i64 0, ptr %63, align 8
  store i32 %storemerge, ptr %11, align 4
  %64 = load ptr, ptr %10, align 8
  %65 = load i64, ptr %33, align 8
  %66 = tail call signext i8 @nfaQueueExec(ptr noundef %64, ptr noundef nonnull %10, i64 noundef %65) #13
  %.not29 = icmp eq i8 %66, 0
  br i1 %.not29, label %70, label %67

67:                                               ; preds = %57
  %68 = load i64, ptr %33, align 8
  %69 = tail call signext i8 @nfaQueueCompressState(ptr noundef nonnull %8, ptr noundef nonnull %10, i64 noundef %68) #13
  br label %76

70:                                               ; preds = %57
  %71 = getelementptr inbounds nuw i8, ptr %0, i64 328
  %72 = load i8, ptr %71, align 8
  %73 = and i8 %72, 1
  %.not30 = icmp eq i8 %73, 0
  br i1 %.not30, label %74, label %76

74:                                               ; preds = %70
  %75 = or i8 %72, 2
  store i8 %75, ptr %71, align 8
  br label %76

76:                                               ; preds = %70, %74, %67
  ret void
}